target datalayout = "e-m:e-p270:32:32-p271:32:32-p272:64:64-i64:64-i128:128-f80:128-n8:16:32:64-S128"
target triple = "x86_64-pc-linux-gnu"

@.str.14 = private unnamed_addr constant [6 x i8] c"QF_FD\00", align 1
@.str.15 = private unnamed_addr constant [5 x i8] c"HORN\00", align 1
@.str.31 = private unnamed_addr constant [4 x i8] c"ALL\00", align 1

; Function Attrs: mustprogress uwtable
define hidden noundef zeroext i1 @_ZN10smt_logics14logic_has_hornERK6symbol(ptr noundef nonnull align 8 dereferenceable(8) %0) #4 align 2 {
  %2 = alloca ptr, align 8
  store ptr %0, ptr %2, align 8, !tbaa !3
  %3 = load ptr, ptr %2, align 8, !tbaa !3
  %4 = call noundef zeroext i1 @_ZeqRK6symbolPKc(ptr noundef nonnull align 8 dereferenceable(8) %3, ptr noundef @.str.15)
  ret i1 %4
}

; Function Attrs: mustprogress uwtable
define linkonce_odr hidden noundef zeroext i1 @_ZN10smt_logics12logic_has_fdERK6symbol(ptr noundef nonnull align 8 dereferenceable(8) %0) #4 comdat align 2 {
  %2 = alloca ptr, align 8
  store ptr %0, ptr %2, align 8, !tbaa !3
  %3 = load ptr, ptr %2, align 8, !tbaa !3
  %4 = call noundef zeroext i1 @_ZeqRK6symbolPKc(ptr noundef nonnull align 8 dereferenceable(8) %3, ptr noundef @.str.14)
  ret i1 %4
}

; Function Attrs: mustprogress uwtable
define linkonce_odr hidden noundef zeroext i1 @_ZN10smt_logics12logic_is_allERK6symbol(ptr noundef nonnull align 8 dereferenceable(8) %0) #4 comdat align 2 {
  %2 = alloca ptr, align 8
  store ptr %0, ptr %2, align 8, !tbaa !3
  %3 = load ptr, ptr %2, align 8, !tbaa !3
  %4 = call noundef zeroext i1 @_ZeqRK6symbolPKc(ptr noundef nonnull align 8 dereferenceable(8) %3, ptr noundef @.str.31)
  ret i1 %4
}

; Function Attrs: mustprogress uwtable
define hidden noundef zeroext i1 @_ZN10smt_logics15supported_logicERK6symbol(ptr noundef nonnull align 8 dereferenceable(8) %0) #4 align 2 {
  %2 = alloca ptr, align 8
  store ptr %0, ptr %2, align 8, !tbaa !3
  %3 = load ptr, ptr %2, align 8, !tbaa !3
  %4 = call noundef zeroext i1 @_ZN10smt_logics12logic_has_ufERK6symbol(ptr noundef nonnull align 8 dereferenceable(8) %3)
  br i1 %4, label %35, label %5

5:                                                ; preds = %1
  %6 = load ptr, ptr %2, align 8, !tbaa !3
  %7 = call noundef zeroext i1 @_ZN10smt_logics12logic_is_allERK6symbol(ptr noundef nonnull align 8 dereferenceable(8) %6)
  br i1 %7, label %35, label %8

8:                                                ; preds = %5
  %9 = load ptr, ptr %2, align 8, !tbaa !3
  %10 = call noundef zeroext i1 @_ZN10smt_logics12logic_has_fdERK6symbol(ptr noundef nonnull align 8 dereferenceable(8) %9)
  br i1 %10, label %35, label %11

11:                                               ; preds = %8
  %12 = load ptr, ptr %2, align 8, !tbaa !3
  %13 = call noundef zeroext i1 @_ZN10smt_logics15logic_has_arithERK6symbol(ptr noundef nonnull align 8 dereferenceable(8) %12)
  br i1 %13, label %35, label %14

14:                                               ; preds = %11
  %15 = load ptr, ptr %2, align 8, !tbaa !3
  %16 = call noundef zeroext i1 @_ZN10smt_logics12logic_has_bvERK6symbol(ptr noundef nonnull align 8 dereferenceable(8) %15)
  br i1 %16, label %35, label %17

17:                                               ; preds = %14
  %18 = load ptr, ptr %2, align 8, !tbaa !3
  %19 = call noundef zeroext i1 @_ZN10smt_logics15logic_has_arrayERK6symbol(ptr noundef nonnull align 8 dereferenceable(8) %18)
  br i1 %19, label %35, label %20

20:                                               ; preds = %17
  %21 = load ptr, ptr %2, align 8, !tbaa !3
  %22 = call noundef zeroext i1 @_ZN10smt_logics13logic_has_seqERK6symbol(ptr noundef nonnull align 8 dereferenceable(8) %21)
  br i1 %22, label %35, label %23

23:                                               ; preds = %20
  %24 = load ptr, ptr %2, align 8, !tbaa !3
  %25 = call noundef zeroext i1 @_ZN10smt_logics13logic_has_strERK6symbol(ptr noundef nonnull align 8 dereferenceable(8) %24)
  br i1 %25, label %35, label %26

26:                                               ; preds = %23
  %27 = load ptr, ptr %2, align 8, !tbaa !3
  %28 = call noundef zeroext i1 @_ZN10smt_logics14logic_has_hornERK6symbol(ptr noundef nonnull align 8 dereferenceable(8) %27)
  br i1 %28, label %35, label %29

29:                                               ; preds = %26
  %30 = load ptr, ptr %2, align 8, !tbaa !3
  %31 = call noundef zeroext i1 @_ZN10smt_logics13logic_has_fpaERK6symbol(ptr noundef nonnull align 8 dereferenceable(8) %30)
  br i1 %31, label %35, label %32

32:                                               ; preds = %29
  %33 = load ptr, ptr %2, align 8, !tbaa !3
  %34 = call noundef zeroext i1 @_ZN10smt_logics18logic_has_datatypeERK6symbol(ptr noundef nonnull align 8 dereferenceable(8) %33)
  br label %35

35:                                               ; preds = %32, %29, %26, %23, %20, %17, %14, %11, %8, %5, %1
  %36 = phi i1 [ true, %29 ], [ true, %26 ], [ true, %23 ], [ true, %20 ], [ true, %17 ], [ true, %14 ], [ true, %11 ], [ true, %8 ], [ true, %5 ], [ true, %1 ], [ %34, %32 ]
  ret i1 %36
}