; Function Attrs: mustprogress uwtable
define hidden noundef zeroext i1 @_ZN10smt_logics15supported_logicERK6symbol(ptr noundef nonnull align 8 dereferenceable(8) %0) local_unnamed_addr #3 align 2 {
  %2 = tail call noundef zeroext i1 @_ZN10smt_logics12logic_has_ufERK6symbol(ptr noundef nonnull align 8 dereferenceable(8) %0)
  br i1 %2, label %23, label %3

3:                                                ; preds = %1
  %4 = tail call noundef zeroext i1 @_ZeqRK6symbolPKc(ptr noundef nonnull align 8 dereferenceable(8) %0, ptr noundef nonnull @.str.31)
  br i1 %4, label %23, label %5

5:                                                ; preds = %3
  %6 = tail call noundef zeroext i1 @_ZeqRK6symbolPKc(ptr noundef nonnull align 8 dereferenceable(8) %0, ptr noundef nonnull @.str.14)
  br i1 %6, label %23, label %7

7:                                                ; preds = %5
  %8 = tail call noundef zeroext i1 @_ZN10smt_logics15logic_has_arithERK6symbol(ptr noundef nonnull align 8 dereferenceable(8) %0)
  br i1 %8, label %23, label %9

9:                                                ; preds = %7
  %10 = tail call noundef zeroext i1 @_ZN10smt_logics12logic_has_bvERK6symbol(ptr noundef nonnull align 8 dereferenceable(8) %0)
  br i1 %10, label %23, label %11

11:                                               ; preds = %9
  %12 = tail call noundef zeroext i1 @_ZN10smt_logics15logic_has_arrayERK6symbol(ptr noundef nonnull align 8 dereferenceable(8) %0)
  br i1 %12, label %23, label %13

13:                                               ; preds = %11
  %14 = tail call noundef zeroext i1 @_ZN10smt_logics13logic_has_seqERK6symbol(ptr noundef nonnull align 8 dereferenceable(8) %0)
  br i1 %14, label %23, label %15

15:                                               ; preds = %13
  %16 = tail call noundef zeroext i1 @_ZN10smt_logics13logic_has_strERK6symbol(ptr noundef nonnull align 8 dereferenceable(8) %0)
  br i1 %16, label %23, label %17

17:                                               ; preds = %15
  %18 = tail call noundef zeroext i1 @_ZeqRK6symbolPKc(ptr noundef nonnull align 8 dereferenceable(8) %0, ptr noundef nonnull @.str.15)
  br i1 %18, label %23, label %19

19:                                               ; preds = %17
  %20 = tail call noundef zeroext i1 @_ZN10smt_logics13logic_has_fpaERK6symbol(ptr noundef nonnull align 8 dereferenceable(8) %0)
  br i1 %20, label %23, label %21

21:                                               ; preds = %19
  %22 = tail call noundef zeroext i1 @_ZN10smt_logics18logic_has_datatypeERK6symbol(ptr noundef nonnull align 8 dereferenceable(8) %0)
  br label %23

23:                                               ; preds = %21, %19, %17, %15, %13, %11, %9, %7, %5, %3, %1
  %24 = phi i1 [ true, %19 ], [ true, %17 ], [ true, %15 ], [ true, %13 ], [ true, %11 ], [ true, %9 ], [ true, %7 ], [ true, %5 ], [ true, %3 ], [ true, %1 ], [ %22, %21 ]
  ret i1 %24
}